target datalayout = "e-m:e-p270:32:32-p271:32:32-p272:64:64-i64:64-i128:128-f80:128-n8:16:32:64-S128"
target triple = "x86_64-pc-linux-gnu"

%struct.LWLockHandle = type { ptr, i32 }
%struct.LWLock = type { i16, %struct.pg_atomic_uint32, %struct.proclist_head }
%struct.pg_atomic_uint32 = type { i32 }
%struct.proclist_head = type { i32, i32 }

@.str.1 = private unnamed_addr constant [9 x i8] c"lwlock.c\00", align 1
@num_held_lwlocks = internal global i32 0, align 4
@.str.3 = private unnamed_addr constant [23 x i8] c"too many LWLocks taken\00", align 1
@InterruptHoldoffCount = external global i32, align 4
@held_lwlocks = internal global [200 x %struct.LWLockHandle] zeroinitializer, align 16
@__func__.LWLockConditionalAcquire = private unnamed_addr constant [25 x i8] c"LWLockConditionalAcquire\00", align 1

; Function Attrs: inlinehint nounwind uwtable
define internal zeroext i1 @pg_atomic_compare_exchange_u32_impl(ptr noundef %0, ptr noundef %1, i32 noundef %2) #5 {
  %4 = alloca ptr, align 8
  %5 = alloca ptr, align 8
  %6 = alloca i32, align 4
  %7 = alloca i8, align 1
  store ptr %0, ptr %4, align 8
  store ptr %1, ptr %5, align 8
  store i32 %2, ptr %6, align 4
  call void @llvm.lifetime.start.p0(i64 1, ptr %7) #9
  %8 = load ptr, ptr %5, align 8
  %9 = load ptr, ptr %4, align 8
  %10 = getelementptr inbounds nuw %struct.pg_atomic_uint32, ptr %9, i32 0, i32 0
  %11 = load ptr, ptr %5, align 8
  %12 = load i32, ptr %11, align 4
  %13 = load i32, ptr %6, align 4
  %14 = load ptr, ptr %4, align 8
  %15 = getelementptr inbounds nuw %struct.pg_atomic_uint32, ptr %14, i32 0, i32 0
  %16 = call { i32, i8 } asm sideeffect "\09lock\09\09\09\09\0A\09cmpxchgl\09$4,$5\09\0A   setz\09\09$2\09\09\0A", "={ax},=*m,=q,{ax},r,*m,~{memory},~{cc},~{dirflag},~{fpsr},~{flags}"(ptr elementtype(i32) %10, i32 %12, i32 %13, ptr elementtype(i32) %15) #9, !srcloc !36
  %17 = extractvalue { i32, i8 } %16, 0
  %18 = extractvalue { i32, i8 } %16, 1
  store i32 %17, ptr %8, align 4
  store i8 %18, ptr %7, align 1
  %19 = load i8, ptr %7, align 1
  %20 = icmp ne i8 %19, 0
  call void @llvm.lifetime.end.p0(i64 1, ptr %7) #9
  ret i1 %20
}

; Function Attrs: inlinehint nounwind uwtable
define internal i32 @pg_atomic_read_u32_impl(ptr noundef %0) #5 {
  %2 = alloca ptr, align 8
  store ptr %0, ptr %2, align 8
  %3 = load ptr, ptr %2, align 8
  %4 = getelementptr inbounds nuw %struct.pg_atomic_uint32, ptr %3, i32 0, i32 0
  %5 = load volatile i32, ptr %4, align 4
  ret i32 %5
}

; Function Attrs: inlinehint nounwind uwtable
define internal zeroext i1 @pg_atomic_compare_exchange_u32(ptr noundef %0, ptr noundef %1, i32 noundef %2) #5 {
  %4 = alloca ptr, align 8
  %5 = alloca ptr, align 8
  %6 = alloca i32, align 4
  store ptr %0, ptr %4, align 8
  store ptr %1, ptr %5, align 8
  store i32 %2, ptr %6, align 4
  %7 = load ptr, ptr %4, align 8
  %8 = load ptr, ptr %5, align 8
  %9 = load i32, ptr %6, align 4
  %10 = call zeroext i1 @pg_atomic_compare_exchange_u32_impl(ptr noundef %7, ptr noundef %8, i32 noundef %9)
  ret i1 %10
}

; Function Attrs: inlinehint nounwind uwtable
define internal i32 @pg_atomic_read_u32(ptr noundef %0) #5 {
  %2 = alloca ptr, align 8
  store ptr %0, ptr %2, align 8
  %3 = load ptr, ptr %2, align 8
  %4 = call i32 @pg_atomic_read_u32_impl(ptr noundef %3)
  ret i32 %4
}

; Function Attrs: nounwind uwtable
define internal zeroext i1 @LWLockAttemptLock(ptr noundef %0, i32 noundef %1) #0 {
  %3 = alloca i1, align 1
  %4 = alloca ptr, align 8
  %5 = alloca i32, align 4
  %6 = alloca i32, align 4
  %7 = alloca i32, align 4
  %8 = alloca i8, align 1
  %9 = alloca i32, align 4
  store ptr %0, ptr %4, align 8
  store i32 %1, ptr %5, align 4
  call void @llvm.lifetime.start.p0(i64 4, ptr %6) #9
  %10 = load ptr, ptr %4, align 8
  %11 = getelementptr inbounds nuw %struct.LWLock, ptr %10, i32 0, i32 1
  %12 = call i32 @pg_atomic_read_u32(ptr noundef %11)
  store i32 %12, ptr %6, align 4
  br label %13

13:                                               ; preds = %53, %2
  br label %14

14:                                               ; preds = %13
  call void @llvm.lifetime.start.p0(i64 4, ptr %7) #9
  call void @llvm.lifetime.start.p0(i64 1, ptr %8) #9
  %15 = load i32, ptr %6, align 4
  store i32 %15, ptr %7, align 4
  %16 = load i32, ptr %5, align 4
  %17 = icmp eq i32 %16, 0
  br i1 %17, label %18, label %29

18:                                               ; preds = %14
  %19 = load i32, ptr %6, align 4
  %20 = and i32 %19, 33554431
  %21 = icmp eq i32 %20, 0
  %22 = zext i1 %21 to i8
  store i8 %22, ptr %8, align 1
  %23 = load i8, ptr %8, align 1, !range !7, !noundef !8
  %24 = trunc i8 %23 to i1
  br i1 %24, label %25, label %28

25:                                               ; preds = %18
  %26 = load i32, ptr %7, align 4
  %27 = add i32 %26, 16777216
  store i32 %27, ptr %7, align 4
  br label %28

28:                                               ; preds = %25, %18
  br label %40

29:                                               ; preds = %14
  %30 = load i32, ptr %6, align 4
  %31 = and i32 %30, 16777216
  %32 = icmp eq i32 %31, 0
  %33 = zext i1 %32 to i8
  store i8 %33, ptr %8, align 1
  %34 = load i8, ptr %8, align 1, !range !7, !noundef !8
  %35 = trunc i8 %34 to i1
  br i1 %35, label %36, label %39

36:                                               ; preds = %29
  %37 = load i32, ptr %7, align 4
  %38 = add i32 %37, 1
  store i32 %38, ptr %7, align 4
  br label %39

39:                                               ; preds = %36, %29
  br label %40

40:                                               ; preds = %39, %28
  %41 = load ptr, ptr %4, align 8
  %42 = getelementptr inbounds nuw %struct.LWLock, ptr %41, i32 0, i32 1
  %43 = load i32, ptr %7, align 4
  %44 = call zeroext i1 @pg_atomic_compare_exchange_u32(ptr noundef %42, ptr noundef %6, i32 noundef %43)
  br i1 %44, label %45, label %50

45:                                               ; preds = %40
  %46 = load i8, ptr %8, align 1, !range !7, !noundef !8
  %47 = trunc i8 %46 to i1
  br i1 %47, label %48, label %49

48:                                               ; preds = %45
  store i1 false, ptr %3, align 1
  store i32 1, ptr %9, align 4
  br label %51

49:                                               ; preds = %45
  store i1 true, ptr %3, align 1
  store i32 1, ptr %9, align 4
  br label %51

50:                                               ; preds = %40
  store i32 0, ptr %9, align 4
  br label %51

51:                                               ; preds = %50, %49, %48
  call void @llvm.lifetime.end.p0(i64 1, ptr %8) #9
  call void @llvm.lifetime.end.p0(i64 4, ptr %7) #9
  %52 = load i32, ptr %9, align 4
  switch i32 %52, label %54 [
    i32 0, label %53
  ]

53:                                               ; preds = %51
  br label %13

54:                                               ; preds = %51
  call void @llvm.lifetime.end.p0(i64 4, ptr %6) #9
  %55 = load i1, ptr %3, align 1
  ret i1 %55
}

; Function Attrs: nounwind uwtable
define dso_local zeroext i1 @LWLockConditionalAcquire(ptr noundef %0, i32 noundef %1) #0 {
  %3 = alloca ptr, align 8
  %4 = alloca i32, align 4
  %5 = alloca i8, align 1
  store ptr %0, ptr %3, align 8
  store i32 %1, ptr %4, align 4
  call void @llvm.lifetime.start.p0(i64 1, ptr %5) #9
  %6 = load i32, ptr @num_held_lwlocks, align 4
  %7 = icmp sge i32 %6, 200
  br i1 %7, label %8, label %19

8:                                                ; preds = %2
  br label %9

9:                                                ; preds = %8
  br i1 true, label %10, label %12

10:                                               ; preds = %9
  %11 = call zeroext i1 @errstart_cold(i32 noundef 21, ptr noundef null) #11
  br i1 %11, label %14, label %16

12:                                               ; preds = %9
  %13 = call zeroext i1 @errstart(i32 noundef 21, ptr noundef null)
  br i1 %13, label %14, label %16

14:                                               ; preds = %12, %10
  %15 = call i32 (ptr, ...) @errmsg_internal(ptr noundef @.str.3)
  call void @errfinish(ptr noundef @.str.1, i32 noundef 1349, ptr noundef @__func__.LWLockConditionalAcquire)
  br label %16

16:                                               ; preds = %14, %12, %10
  unreachable

17:                                               ; No predecessors!
  br label %18

18:                                               ; preds = %17
  br label %19

19:                                               ; preds = %18, %2
  %20 = load volatile i32, ptr @InterruptHoldoffCount, align 4
  %21 = add i32 %20, 1
  store volatile i32 %21, ptr @InterruptHoldoffCount, align 4
  %22 = load ptr, ptr %3, align 8
  %23 = load i32, ptr %4, align 4
  %24 = call zeroext i1 @LWLockAttemptLock(ptr noundef %22, i32 noundef %23)
  %25 = zext i1 %24 to i8
  store i8 %25, ptr %5, align 1
  %26 = load i8, ptr %5, align 1, !range !7, !noundef !8
  %27 = trunc i8 %26 to i1
  br i1 %27, label %28, label %34

28:                                               ; preds = %19
  br label %29

29:                                               ; preds = %28
  %30 = load volatile i32, ptr @InterruptHoldoffCount, align 4
  %31 = add i32 %30, -1
  store volatile i32 %31, ptr @InterruptHoldoffCount, align 4
  br label %32

32:                                               ; preds = %29
  br label %33

33:                                               ; preds = %32
  br label %46

34:                                               ; preds = %19
  %35 = load ptr, ptr %3, align 8
  %36 = load i32, ptr @num_held_lwlocks, align 4
  %37 = sext i32 %36 to i64
  %38 = getelementptr inbounds [200 x %struct.LWLockHandle], ptr @held_lwlocks, i64 0, i64 %37
  %39 = getelementptr inbounds nuw %struct.LWLockHandle, ptr %38, i32 0, i32 0
  store ptr %35, ptr %39, align 16
  %40 = load i32, ptr %4, align 4
  %41 = load i32, ptr @num_held_lwlocks, align 4
  %42 = add i32 %41, 1
  store i32 %42, ptr @num_held_lwlocks, align 4
  %43 = sext i32 %41 to i64
  %44 = getelementptr inbounds [200 x %struct.LWLockHandle], ptr @held_lwlocks, i64 0, i64 %43
  %45 = getelementptr inbounds nuw %struct.LWLockHandle, ptr %44, i32 0, i32 1
  store i32 %40, ptr %45, align 8
  br label %46

46:                                               ; preds = %34, %33
  %47 = load i8, ptr %5, align 1, !range !7, !noundef !8
  %48 = trunc i8 %47 to i1
  %49 = xor i1 %48, true
  call void @llvm.lifetime.end.p0(i64 1, ptr %5) #9
  ret i1 %49
}