; Function Attrs: nounwind uwtable
define dso_local noundef zeroext i1 @LWLockConditionalAcquire(ptr noundef %0, i32 noundef %1) local_unnamed_addr #0 {
  %3 = load i32, ptr @num_held_lwlocks, align 4
  %4 = icmp sgt i32 %3, 199
  br i1 %4, label %5, label %8

5:                                                ; preds = %2
  %6 = tail call zeroext i1 @errstart_cold(i32 noundef 21, ptr noundef null) #17
  tail call void @llvm.assume(i1 %6)
  %7 = tail call i32 (ptr, ...) @errmsg_internal(ptr noundef nonnull @.str.3) #15
  tail call void @errfinish(ptr noundef nonnull @.str.1, i32 noundef 1349, ptr noundef nonnull @__func__.LWLockConditionalAcquire) #15
  unreachable

8:                                                ; preds = %2
  %9 = load volatile i32, ptr @InterruptHoldoffCount, align 4
  %10 = add i32 %9, 1
  store volatile i32 %10, ptr @InterruptHoldoffCount, align 4
  %11 = getelementptr inbounds nuw i8, ptr %0, i64 4
  %12 = load volatile i32, ptr %11, align 4
  %13 = icmp eq i32 %1, 0
  br i1 %13, label %.split.us.i, label %.split.i

.split.us.i:                                      ; preds = %8, %.split.us.i
  %.0.us.i = phi i32 [ %18, %.split.us.i ], [ %12, %8 ]
  %14 = and i32 %.0.us.i, 33554431
  %15 = icmp eq i32 %14, 0
  %16 = or disjoint i32 %.0.us.i, 16777216
  %spec.select.us.i = select i1 %15, i32 %16, i32 %.0.us.i
  %17 = tail call { i32, i8 } asm sideeffect "\09lock\09\09\09\09\0A\09cmpxchgl\09$4,$5\09\0A   setz\09\09$2\09\09\0A", "={ax},=*m,=q,{ax},r,*m,~{memory},~{cc},~{dirflag},~{fpsr},~{flags}"(ptr nonnull elementtype(i32) %11, i32 %.0.us.i, i32 %spec.select.us.i, ptr nonnull elementtype(i32) %11) #15, !srcloc !19
  %18 = extractvalue { i32, i8 } %17, 0
  %19 = extractvalue { i32, i8 } %17, 1
  %.not.us.i = icmp eq i8 %19, 0
  br i1 %.not.us.i, label %.split.us.i, label %LWLockAttemptLock.exit

.split.i:                                         ; preds = %8, %.split.i
  %.0.i = phi i32 [ %23, %.split.i ], [ %12, %8 ]
  %20 = and i32 %.0.i, 16777216
  %.lobit.i = lshr exact i32 %20, 24
  %21 = xor i32 %.lobit.i, 1
  %spec.select13.i = add nuw nsw i32 %21, %.0.i
  %22 = tail call { i32, i8 } asm sideeffect "\09lock\09\09\09\09\0A\09cmpxchgl\09$4,$5\09\0A   setz\09\09$2\09\09\0A", "={ax},=*m,=q,{ax},r,*m,~{memory},~{cc},~{dirflag},~{fpsr},~{flags}"(ptr nonnull elementtype(i32) %11, i32 %.0.i, i32 %spec.select13.i, ptr nonnull elementtype(i32) %11) #15, !srcloc !19
  %23 = extractvalue { i32, i8 } %22, 0
  %24 = extractvalue { i32, i8 } %22, 1
  %.not.i = icmp eq i8 %24, 0
  br i1 %.not.i, label %.split.i, label %.split18.i

.split18.i:                                       ; preds = %.split.i
  %25 = icmp eq i32 %20, 0
  br i1 %25, label %29, label %26

LWLockAttemptLock.exit:                           ; preds = %.split.us.i
  br i1 %15, label %29, label %26

26:                                               ; preds = %.split18.i, %LWLockAttemptLock.exit
  %27 = load volatile i32, ptr @InterruptHoldoffCount, align 4
  %28 = add i32 %27, -1
  store volatile i32 %28, ptr @InterruptHoldoffCount, align 4
  br label %35

29:                                               ; preds = %.split18.i, %LWLockAttemptLock.exit
  %30 = load i32, ptr @num_held_lwlocks, align 4
  %31 = sext i32 %30 to i64
  %32 = getelementptr inbounds [200 x %struct.LWLockHandle], ptr @held_lwlocks, i64 0, i64 %31
  store ptr %0, ptr %32, align 16
  %33 = add i32 %30, 1
  store i32 %33, ptr @num_held_lwlocks, align 4
  %34 = getelementptr inbounds [200 x %struct.LWLockHandle], ptr @held_lwlocks, i64 0, i64 %31, i32 1
  store i32 %1, ptr %34, align 8
  br label %35

35:                                               ; preds = %29, %26
  %.us-phi.i7 = phi i1 [ true, %29 ], [ false, %26 ]
  ret i1 %.us-phi.i7
}